target datalayout = "e-m:e-p270:32:32-p271:32:32-p272:64:64-i64:64-i128:128-f80:128-n8:16:32:64-S128"
target triple = "x86_64-pc-linux-gnu"

%"struct.std::_Vector_base.9" = type { %"struct.std::_Vector_base<ncnn::BBoxRect, std::allocator<ncnn::BBoxRect>>::_Vector_impl" }
%"struct.std::_Vector_base<ncnn::BBoxRect, std::allocator<ncnn::BBoxRect>>::_Vector_impl" = type { %"struct.std::_Vector_base<ncnn::BBoxRect, std::allocator<ncnn::BBoxRect>>::_Vector_impl_data" }
%"struct.std::_Vector_base<ncnn::BBoxRect, std::allocator<ncnn::BBoxRect>>::_Vector_impl_data" = type { ptr, ptr, ptr }
%"struct.std::_Vector_base.14" = type { %"struct.std::_Vector_base<float, std::allocator<float>>::_Vector_impl" }
%"struct.std::_Vector_base<float, std::allocator<float>>::_Vector_impl" = type { %"struct.std::_Vector_base<float, std::allocator<float>>::_Vector_impl_data" }
%"struct.std::_Vector_base<float, std::allocator<float>>::_Vector_impl_data" = type { ptr, ptr, ptr }
%"struct.ncnn::BBoxRect" = type { float, float, float, float, i32 }

; Function Attrs: inlinehint mustprogress nounwind uwtable
define linkonce_odr void @_ZSt4swapIfENSt9enable_ifIXsr6__and_ISt6__not_ISt15__is_tuple_likeIT_EESt21is_move_constructibleIS3_ESt18is_move_assignableIS3_EEE5valueEvE4typeERS3_SC_(ptr noundef nonnull align 4 dereferenceable(4) %0, ptr noundef nonnull align 4 dereferenceable(4) %1) #0 comdat {
  %3 = alloca ptr, align 8
  %4 = alloca ptr, align 8
  %5 = alloca float, align 4
  store ptr %0, ptr %3, align 8, !tbaa !64
  store ptr %1, ptr %4, align 8, !tbaa !64
  call void @llvm.lifetime.start.p0(i64 4, ptr %5) #10
  %6 = load ptr, ptr %3, align 8, !tbaa !64
  %7 = load float, ptr %6, align 4, !tbaa !63
  store float %7, ptr %5, align 4, !tbaa !63
  %8 = load ptr, ptr %4, align 8, !tbaa !64
  %9 = load float, ptr %8, align 4, !tbaa !63
  %10 = load ptr, ptr %3, align 8, !tbaa !64
  store float %9, ptr %10, align 4, !tbaa !63
  %11 = load float, ptr %5, align 4, !tbaa !63
  %12 = load ptr, ptr %4, align 8, !tbaa !64
  store float %11, ptr %12, align 4, !tbaa !63
  call void @llvm.lifetime.end.p0(i64 4, ptr %5) #10
  ret void
}

; Function Attrs: inlinehint mustprogress nounwind uwtable
define linkonce_odr hidden void @_ZSt4swapIN4ncnn8BBoxRectEENSt9enable_ifIXsr6__and_ISt6__not_ISt15__is_tuple_likeIT_EESt21is_move_constructibleIS5_ESt18is_move_assignableIS5_EEE5valueEvE4typeERS5_SE_(ptr noundef nonnull align 4 dereferenceable(20) %0, ptr noundef nonnull align 4 dereferenceable(20) %1) #0 comdat {
  %3 = alloca ptr, align 8
  %4 = alloca ptr, align 8
  %5 = alloca %"struct.ncnn::BBoxRect", align 4
  store ptr %0, ptr %3, align 8, !tbaa !61
  store ptr %1, ptr %4, align 8, !tbaa !61
  call void @llvm.lifetime.start.p0(i64 20, ptr %5) #10
  %6 = load ptr, ptr %3, align 8, !tbaa !61
  call void @llvm.memcpy.p0.p0.i64(ptr align 4 %5, ptr align 4 %6, i64 20, i1 false), !tbaa.struct !202
  %7 = load ptr, ptr %4, align 8, !tbaa !61
  %8 = load ptr, ptr %3, align 8, !tbaa !61
  call void @llvm.memcpy.p0.p0.i64(ptr align 4 %8, ptr align 4 %7, i64 20, i1 false), !tbaa.struct !202
  %9 = load ptr, ptr %4, align 8, !tbaa !61
  call void @llvm.memcpy.p0.p0.i64(ptr align 4 %9, ptr align 4 %5, i64 20, i1 false), !tbaa.struct !202
  call void @llvm.lifetime.end.p0(i64 20, ptr %5) #10
  ret void
}

; Function Attrs: mustprogress nounwind uwtable
define linkonce_odr hidden noundef nonnull align 4 dereferenceable(20) ptr @_ZNSt6vectorIN4ncnn8BBoxRectESaIS1_EEixEm(ptr noundef nonnull align 8 dereferenceable(24) %0, i64 noundef %1) #8 comdat align 2 {
  %3 = alloca ptr, align 8
  %4 = alloca i64, align 8
  store ptr %0, ptr %3, align 8, !tbaa !52
  store i64 %1, ptr %4, align 8, !tbaa !44
  %5 = load ptr, ptr %3, align 8
  %6 = getelementptr inbounds nuw %"struct.std::_Vector_base.9", ptr %5, i32 0, i32 0
  %7 = getelementptr inbounds nuw %"struct.std::_Vector_base<ncnn::BBoxRect, std::allocator<ncnn::BBoxRect>>::_Vector_impl_data", ptr %6, i32 0, i32 0
  %8 = load ptr, ptr %7, align 8, !tbaa !135
  %9 = load i64, ptr %4, align 8, !tbaa !44
  %10 = getelementptr inbounds nuw %"struct.ncnn::BBoxRect", ptr %8, i64 %9
  ret ptr %10
}

; Function Attrs: mustprogress nounwind uwtable
define linkonce_odr hidden noundef nonnull align 4 dereferenceable(4) ptr @_ZNSt6vectorIfSaIfEEixEm(ptr noundef nonnull align 8 dereferenceable(24) %0, i64 noundef %1) #8 comdat align 2 {
  %3 = alloca ptr, align 8
  %4 = alloca i64, align 8
  store ptr %0, ptr %3, align 8, !tbaa !54
  store i64 %1, ptr %4, align 8, !tbaa !44
  %5 = load ptr, ptr %3, align 8
  %6 = getelementptr inbounds nuw %"struct.std::_Vector_base.14", ptr %5, i32 0, i32 0
  %7 = getelementptr inbounds nuw %"struct.std::_Vector_base<float, std::allocator<float>>::_Vector_impl_data", ptr %6, i32 0, i32 0
  %8 = load ptr, ptr %7, align 8, !tbaa !136
  %9 = load i64, ptr %4, align 8, !tbaa !44
  %10 = getelementptr inbounds nuw float, ptr %8, i64 %9
  ret ptr %10
}

; Function Attrs: mustprogress uwtable
define internal void @_ZN4ncnnL21qsort_descent_inplaceINS_8BBoxRectEEEvRSt6vectorIT_SaIS3_EERS2_IfSaIfEEii(ptr noundef nonnull align 8 dereferenceable(24) %0, ptr noundef nonnull align 8 dereferenceable(24) %1, i32 noundef %2, i32 noundef %3) #1 {
  %5 = alloca ptr, align 8
  %6 = alloca ptr, align 8
  %7 = alloca i32, align 4
  %8 = alloca i32, align 4
  %9 = alloca i32, align 4
  %10 = alloca i32, align 4
  %11 = alloca float, align 4
  store ptr %0, ptr %5, align 8, !tbaa !52
  store ptr %1, ptr %6, align 8, !tbaa !54
  store i32 %2, ptr %7, align 4, !tbaa !47
  store i32 %3, ptr %8, align 4, !tbaa !47
  call void @llvm.lifetime.start.p0(i64 4, ptr %9) #10
  %12 = load i32, ptr %7, align 4, !tbaa !47
  store i32 %12, ptr %9, align 4, !tbaa !47
  call void @llvm.lifetime.start.p0(i64 4, ptr %10) #10
  %13 = load i32, ptr %8, align 4, !tbaa !47
  store i32 %13, ptr %10, align 4, !tbaa !47
  call void @llvm.lifetime.start.p0(i64 4, ptr %11) #10
  %14 = load ptr, ptr %6, align 8, !tbaa !54
  %15 = load i32, ptr %7, align 4, !tbaa !47
  %16 = load i32, ptr %8, align 4, !tbaa !47
  %17 = add nsw i32 %15, %16
  %18 = sdiv i32 %17, 2
  %19 = sext i32 %18 to i64
  %20 = call noundef nonnull align 4 dereferenceable(4) ptr @_ZNSt6vectorIfSaIfEEixEm(ptr noundef nonnull align 8 dereferenceable(24) %14, i64 noundef %19) #10
  %21 = load float, ptr %20, align 4, !tbaa !63
  store float %21, ptr %11, align 4, !tbaa !63
  br label %22

22:                                               ; preds = %75, %4
  %23 = load i32, ptr %9, align 4, !tbaa !47
  %24 = load i32, ptr %10, align 4, !tbaa !47
  %25 = icmp sle i32 %23, %24
  br i1 %25, label %26, label %76

26:                                               ; preds = %22
  br label %27

27:                                               ; preds = %35, %26
  %28 = load ptr, ptr %6, align 8, !tbaa !54
  %29 = load i32, ptr %9, align 4, !tbaa !47
  %30 = sext i32 %29 to i64
  %31 = call noundef nonnull align 4 dereferenceable(4) ptr @_ZNSt6vectorIfSaIfEEixEm(ptr noundef nonnull align 8 dereferenceable(24) %28, i64 noundef %30) #10
  %32 = load float, ptr %31, align 4, !tbaa !63
  %33 = load float, ptr %11, align 4, !tbaa !63
  %34 = fcmp fast ogt float %32, %33
  br i1 %34, label %35, label %38

35:                                               ; preds = %27
  %36 = load i32, ptr %9, align 4, !tbaa !47
  %37 = add nsw i32 %36, 1
  store i32 %37, ptr %9, align 4, !tbaa !47
  br label %27, !llvm.loop !221

38:                                               ; preds = %27
  br label %39

39:                                               ; preds = %47, %38
  %40 = load ptr, ptr %6, align 8, !tbaa !54
  %41 = load i32, ptr %10, align 4, !tbaa !47
  %42 = sext i32 %41 to i64
  %43 = call noundef nonnull align 4 dereferenceable(4) ptr @_ZNSt6vectorIfSaIfEEixEm(ptr noundef nonnull align 8 dereferenceable(24) %40, i64 noundef %42) #10
  %44 = load float, ptr %43, align 4, !tbaa !63
  %45 = load float, ptr %11, align 4, !tbaa !63
  %46 = fcmp fast olt float %44, %45
  br i1 %46, label %47, label %50

47:                                               ; preds = %39
  %48 = load i32, ptr %10, align 4, !tbaa !47
  %49 = add nsw i32 %48, -1
  store i32 %49, ptr %10, align 4, !tbaa !47
  br label %39, !llvm.loop !222

50:                                               ; preds = %39
  %51 = load i32, ptr %9, align 4, !tbaa !47
  %52 = load i32, ptr %10, align 4, !tbaa !47
  %53 = icmp sle i32 %51, %52
  br i1 %53, label %54, label %75

54:                                               ; preds = %50
  %55 = load ptr, ptr %5, align 8, !tbaa !52
  %56 = load i32, ptr %9, align 4, !tbaa !47
  %57 = sext i32 %56 to i64
  %58 = call noundef nonnull align 4 dereferenceable(20) ptr @_ZNSt6vectorIN4ncnn8BBoxRectESaIS1_EEixEm(ptr noundef nonnull align 8 dereferenceable(24) %55, i64 noundef %57) #10
  %59 = load ptr, ptr %5, align 8, !tbaa !52
  %60 = load i32, ptr %10, align 4, !tbaa !47
  %61 = sext i32 %60 to i64
  %62 = call noundef nonnull align 4 dereferenceable(20) ptr @_ZNSt6vectorIN4ncnn8BBoxRectESaIS1_EEixEm(ptr noundef nonnull align 8 dereferenceable(24) %59, i64 noundef %61) #10
  call void @_ZSt4swapIN4ncnn8BBoxRectEENSt9enable_ifIXsr6__and_ISt6__not_ISt15__is_tuple_likeIT_EESt21is_move_constructibleIS5_ESt18is_move_assignableIS5_EEE5valueEvE4typeERS5_SE_(ptr noundef nonnull align 4 dereferenceable(20) %58, ptr noundef nonnull align 4 dereferenceable(20) %62) #10
  %63 = load ptr, ptr %6, align 8, !tbaa !54
  %64 = load i32, ptr %9, align 4, !tbaa !47
  %65 = sext i32 %64 to i64
  %66 = call noundef nonnull align 4 dereferenceable(4) ptr @_ZNSt6vectorIfSaIfEEixEm(ptr noundef nonnull align 8 dereferenceable(24) %63, i64 noundef %65) #10
  %67 = load ptr, ptr %6, align 8, !tbaa !54
  %68 = load i32, ptr %10, align 4, !tbaa !47
  %69 = sext i32 %68 to i64
  %70 = call noundef nonnull align 4 dereferenceable(4) ptr @_ZNSt6vectorIfSaIfEEixEm(ptr noundef nonnull align 8 dereferenceable(24) %67, i64 noundef %69) #10
  call void @_ZSt4swapIfENSt9enable_ifIXsr6__and_ISt6__not_ISt15__is_tuple_likeIT_EESt21is_move_constructibleIS3_ESt18is_move_assignableIS3_EEE5valueEvE4typeERS3_SC_(ptr noundef nonnull align 4 dereferenceable(4) %66, ptr noundef nonnull align 4 dereferenceable(4) %70) #10
  %71 = load i32, ptr %9, align 4, !tbaa !47
  %72 = add nsw i32 %71, 1
  store i32 %72, ptr %9, align 4, !tbaa !47
  %73 = load i32, ptr %10, align 4, !tbaa !47
  %74 = add nsw i32 %73, -1
  store i32 %74, ptr %10, align 4, !tbaa !47
  br label %75

75:                                               ; preds = %54, %50
  br label %22, !llvm.loop !223

76:                                               ; preds = %22
  %77 = load i32, ptr %7, align 4, !tbaa !47
  %78 = load i32, ptr %10, align 4, !tbaa !47
  %79 = icmp slt i32 %77, %78
  br i1 %79, label %80, label %85

80:                                               ; preds = %76
  %81 = load ptr, ptr %5, align 8, !tbaa !52
  %82 = load ptr, ptr %6, align 8, !tbaa !54
  %83 = load i32, ptr %7, align 4, !tbaa !47
  %84 = load i32, ptr %10, align 4, !tbaa !47
  call void @_ZN4ncnnL21qsort_descent_inplaceINS_8BBoxRectEEEvRSt6vectorIT_SaIS3_EERS2_IfSaIfEEii(ptr noundef nonnull align 8 dereferenceable(24) %81, ptr noundef nonnull align 8 dereferenceable(24) %82, i32 noundef %83, i32 noundef %84)
  br label %85

85:                                               ; preds = %80, %76
  %86 = load i32, ptr %9, align 4, !tbaa !47
  %87 = load i32, ptr %8, align 4, !tbaa !47
  %88 = icmp slt i32 %86, %87
  br i1 %88, label %89, label %94

89:                                               ; preds = %85
  %90 = load ptr, ptr %5, align 8, !tbaa !52
  %91 = load ptr, ptr %6, align 8, !tbaa !54
  %92 = load i32, ptr %9, align 4, !tbaa !47
  %93 = load i32, ptr %8, align 4, !tbaa !47
  call void @_ZN4ncnnL21qsort_descent_inplaceINS_8BBoxRectEEEvRSt6vectorIT_SaIS3_EERS2_IfSaIfEEii(ptr noundef nonnull align 8 dereferenceable(24) %90, ptr noundef nonnull align 8 dereferenceable(24) %91, i32 noundef %92, i32 noundef %93)
  br label %94

94:                                               ; preds = %89, %85
  call void @llvm.lifetime.end.p0(i64 4, ptr %11) #10
  call void @llvm.lifetime.end.p0(i64 4, ptr %10) #10
  call void @llvm.lifetime.end.p0(i64 4, ptr %9) #10
  ret void
}