; Function Attrs: mustprogress nofree nosync nounwind memory(readwrite, inaccessiblemem: none) uwtable
define internal fastcc void @_ZN4ncnnL21qsort_descent_inplaceINS_8BBoxRectEEEvRSt6vectorIT_SaIS3_EERS2_IfSaIfEEii(ptr noundef nonnull readonly align 8 captures(none) dereferenceable(24) %0, ptr noundef nonnull readonly align 8 captures(none) dereferenceable(24) %1, i32 noundef %2, i32 noundef %3) unnamed_addr #17 {
  %5 = alloca %"struct.ncnn::BBoxRect", align 4
  %.pre59 = load ptr, ptr %1, align 8, !tbaa !78
  br label %tailrecurse

tailrecurse:                                      ; preds = %44, %4
  %6 = phi ptr [ %.pre59, %4 ], [ %45, %44 ]
  %7 = phi ptr [ %.pre59, %4 ], [ %46, %44 ]
  %.tr45 = phi i32 [ %2, %4 ], [ %.0.lcssa, %44 ]
  %8 = add nsw i32 %.tr45, %3
  %9 = sdiv i32 %8, 2
  %10 = sext i32 %9 to i64
  %11 = getelementptr inbounds nuw float, ptr %7, i64 %10
  %12 = load float, ptr %11, align 4, !tbaa !82
  %.not50 = icmp sgt i32 %.tr45, %3
  br i1 %.not50, label %._crit_edge, label %.preheader47

.preheader47:                                     ; preds = %tailrecurse, %38
  %13 = phi ptr [ %39, %38 ], [ %6, %tailrecurse ]
  %.052 = phi i32 [ %.2, %38 ], [ %.tr45, %tailrecurse ]
  %.03851 = phi i32 [ %.240, %38 ], [ %3, %tailrecurse ]
  %14 = sext i32 %.052 to i64
  br label %15

15:                                               ; preds = %15, %.preheader47
  %indvars.iv = phi i64 [ %indvars.iv.next, %15 ], [ %14, %.preheader47 ]
  %16 = getelementptr inbounds nuw float, ptr %13, i64 %indvars.iv
  %17 = load float, ptr %16, align 4, !tbaa !82
  %18 = fcmp fast ogt float %17, %12
  %indvars.iv.next = add nsw i64 %indvars.iv, 1
  br i1 %18, label %15, label %.preheader, !llvm.loop !114

.preheader:                                       ; preds = %15
  %19 = sext i32 %.03851 to i64
  br label %20

20:                                               ; preds = %20, %.preheader
  %indvars.iv56 = phi i64 [ %indvars.iv.next57, %20 ], [ %19, %.preheader ]
  %21 = getelementptr inbounds nuw float, ptr %13, i64 %indvars.iv56
  %22 = load float, ptr %21, align 4, !tbaa !82
  %23 = fcmp fast olt float %22, %12
  %indvars.iv.next57 = add nsw i64 %indvars.iv56, -1
  br i1 %23, label %20, label %24, !llvm.loop !115

24:                                               ; preds = %20
  %25 = trunc nsw i64 %indvars.iv to i32
  %26 = trunc nsw i64 %indvars.iv56 to i32
  %.not43 = icmp sgt i64 %indvars.iv, %indvars.iv56
  br i1 %.not43, label %38, label %27

27:                                               ; preds = %24
  %28 = load ptr, ptr %0, align 8, !tbaa !80
  %29 = getelementptr inbounds nuw %"struct.ncnn::BBoxRect", ptr %28, i64 %indvars.iv
  %30 = getelementptr inbounds nuw %"struct.ncnn::BBoxRect", ptr %28, i64 %indvars.iv56
  call void @llvm.lifetime.start.p0(i64 20, ptr nonnull %5)
  call void @llvm.memcpy.p0.p0.i64(ptr noundef nonnull align 4 dereferenceable(20) %5, ptr noundef nonnull align 4 dereferenceable(20) %29, i64 20, i1 false), !tbaa.struct !92
  tail call void @llvm.memcpy.p0.p0.i64(ptr noundef nonnull align 4 dereferenceable(20) %29, ptr noundef nonnull align 4 dereferenceable(20) %30, i64 20, i1 false), !tbaa.struct !92
  call void @llvm.memcpy.p0.p0.i64(ptr noundef nonnull align 4 dereferenceable(20) %30, ptr noundef nonnull align 4 dereferenceable(20) %5, i64 20, i1 false), !tbaa.struct !92
  call void @llvm.lifetime.end.p0(i64 20, ptr nonnull %5)
  %31 = load ptr, ptr %1, align 8, !tbaa !78
  %32 = getelementptr inbounds nuw float, ptr %31, i64 %indvars.iv
  %33 = getelementptr inbounds nuw float, ptr %31, i64 %indvars.iv56
  %34 = load float, ptr %32, align 4, !tbaa !82
  %35 = load float, ptr %33, align 4, !tbaa !82
  store float %35, ptr %32, align 4, !tbaa !82
  store float %34, ptr %33, align 4, !tbaa !82
  %36 = add nsw i32 %25, 1
  %37 = add nsw i32 %26, -1
  br label %38

38:                                               ; preds = %27, %24
  %39 = phi ptr [ %31, %27 ], [ %13, %24 ]
  %.240 = phi i32 [ %37, %27 ], [ %26, %24 ]
  %.2 = phi i32 [ %36, %27 ], [ %25, %24 ]
  %.not = icmp sgt i32 %.2, %.240
  br i1 %.not, label %._crit_edge, label %.preheader47, !llvm.loop !116

._crit_edge:                                      ; preds = %38, %tailrecurse
  %40 = phi ptr [ %6, %tailrecurse ], [ %39, %38 ]
  %41 = phi ptr [ %7, %tailrecurse ], [ %39, %38 ]
  %.038.lcssa = phi i32 [ %3, %tailrecurse ], [ %.240, %38 ]
  %.0.lcssa = phi i32 [ %.tr45, %tailrecurse ], [ %.2, %38 ]
  %42 = icmp slt i32 %.tr45, %.038.lcssa
  br i1 %42, label %43, label %44

43:                                               ; preds = %._crit_edge
  tail call fastcc void @_ZN4ncnnL21qsort_descent_inplaceINS_8BBoxRectEEEvRSt6vectorIT_SaIS3_EERS2_IfSaIfEEii(ptr noundef nonnull align 8 dereferenceable(24) %0, ptr noundef nonnull align 8 dereferenceable(24) %1, i32 noundef %.tr45, i32 noundef %.038.lcssa)
  %.pre = load ptr, ptr %1, align 8, !tbaa !78
  br label %44

44:                                               ; preds = %43, %._crit_edge
  %45 = phi ptr [ %.pre, %43 ], [ %40, %._crit_edge ]
  %46 = phi ptr [ %.pre, %43 ], [ %41, %._crit_edge ]
  %47 = icmp slt i32 %.0.lcssa, %3
  br i1 %47, label %tailrecurse, label %48

48:                                               ; preds = %44
  ret void
}